target datalayout = "e-m:e-p270:32:32-p271:32:32-p272:64:64-i64:64-i128:128-f80:128-n8:16:32:64-S128"
target triple = "x86_64-pc-linux-gnu"

@hf_afp_pad = internal global i32 0, align 4
@hf_afp_vol_id = internal global i32 0, align 4

; Function Attrs: null_pointer_is_valid sspstrong uwtable
define internal i32 @dissect_query_afp_with_vol_id(ptr noundef %0, ptr noundef %1, ptr noundef %2, i32 noundef %3) #1 {
  %5 = alloca i32, align 4
  %6 = alloca ptr, align 8
  %7 = alloca ptr, align 8
  %8 = alloca ptr, align 8
  %9 = alloca i32, align 4
  store ptr %0, ptr %6, align 8
  store ptr %1, ptr %7, align 8
  store ptr %2, ptr %8, align 8
  store i32 %3, ptr %9, align 4
  %10 = load ptr, ptr %8, align 8
  %11 = icmp ne ptr %10, null
  br i1 %11, label %14, label %12

12:                                               ; preds = %4
  %13 = load i32, ptr %9, align 4
  store i32 %13, ptr %5, align 4
  br label %30

14:                                               ; preds = %4
  %15 = load ptr, ptr %8, align 8
  %16 = load i32, ptr @hf_afp_pad, align 4
  %17 = load ptr, ptr %6, align 8
  %18 = load i32, ptr %9, align 4
  %19 = call ptr @proto_tree_add_item(ptr noundef %15, i32 noundef %16, ptr noundef %17, i32 noundef %18, i32 noundef 1, i32 noundef 0)
  %20 = load i32, ptr %9, align 4
  %21 = add i32 %20, 1
  store i32 %21, ptr %9, align 4
  %22 = load ptr, ptr %8, align 8
  %23 = load i32, ptr @hf_afp_vol_id, align 4
  %24 = load ptr, ptr %6, align 8
  %25 = load i32, ptr %9, align 4
  %26 = call ptr @proto_tree_add_item(ptr noundef %22, i32 noundef %23, ptr noundef %24, i32 noundef %25, i32 noundef 2, i32 noundef 0)
  %27 = load i32, ptr %9, align 4
  %28 = add i32 %27, 2
  store i32 %28, ptr %9, align 4
  %29 = load i32, ptr %9, align 4
  store i32 %29, ptr %5, align 4
  br label %30

30:                                               ; preds = %14, %12
  %31 = load i32, ptr %5, align 4
  ret i32 %31
}