; Function Attrs: null_pointer_is_valid sspstrong uwtable
define internal fastcc range(i32 1, 5) i32 @dissect_query_afp_with_vol_id(ptr noundef %0, ptr noundef %1) unnamed_addr #1 {
  %.not = icmp eq ptr %1, null
  br i1 %.not, label %8, label %3

3:                                                ; preds = %2
  %4 = load i32, ptr @hf_afp_pad, align 4
  %5 = tail call ptr @proto_tree_add_item(ptr noundef nonnull %1, i32 noundef %4, ptr noundef %0, i32 noundef 1, i32 noundef 1, i32 noundef 0)
  %6 = load i32, ptr @hf_afp_vol_id, align 4
  %7 = tail call ptr @proto_tree_add_item(ptr noundef nonnull %1, i32 noundef %6, ptr noundef %0, i32 noundef 2, i32 noundef 2, i32 noundef 0)
  br label %8

8:                                                ; preds = %2, %3
  %.0 = phi i32 [ 4, %3 ], [ 1, %2 ]
  ret i32 %.0
}